; Function Attrs: mustprogress uwtable
define hidden void @_ZN3smt9tmp_enodeC2Ev(ptr noundef nonnull align 8 dereferenceable(32) %this) unnamed_addr #3 align 2 personality ptr @__gxx_personality_v0 {
if.end.i:
  store i32 0, ptr %this, align 8
  %call2.i = tail call noalias noundef ptr @_ZN6memory8allocateEm(i64 noundef 32)
  %m_data.i = getelementptr inbounds i8, ptr %this, i64 8
  store ptr %call2.i, ptr %m_data.i, align 8
  tail call void @llvm.memset.p0.i64(ptr noundef nonnull align 1 dereferenceable(32) %call2.i, i8 0, i64 32, i1 false)
  %0 = load i32, ptr %this, align 8
  %m_num_args7.i = getelementptr inbounds i8, ptr %call2.i, i64 24
  store i32 %0, ptr %m_num_args7.i, align 8
  %m_capacity = getelementptr inbounds i8, ptr %this, i64 16
  %m_enode_data = getelementptr inbounds i8, ptr %this, i64 24
  store ptr null, ptr %m_enode_data, align 8
  store i32 5, ptr %m_capacity, align 8
  %call.i1 = invoke noalias noundef ptr @_ZN6memory8allocateEm(i64 noundef 152)
          to label %invoke.cont unwind label %lpad

invoke.cont:                                      ; preds = %if.end.i
  store ptr %call.i1, ptr %m_enode_data, align 8
  %1 = getelementptr inbounds i8, ptr %call.i1, i64 24
  tail call void @llvm.memset.p0.i64(ptr noundef nonnull align 1 dereferenceable(152) %1, i8 0, i64 128, i1 false)
  %2 = load ptr, ptr %m_data.i, align 8
  store ptr %2, ptr %call.i1, align 8
  %m_root.i = getelementptr inbounds i8, ptr %call.i1, i64 8
  store ptr %call.i1, ptr %m_root.i, align 8
  %m_next.i = getelementptr inbounds i8, ptr %call.i1, i64 16
  store ptr %call.i1, ptr %m_next.i, align 8
  %m_class_size.i = getelementptr inbounds i8, ptr %call.i1, i64 32
  store i32 1, ptr %m_class_size.i, align 8
  %m_cgc_enabled.i = getelementptr inbounds i8, ptr %call.i1, i64 44
  store i16 256, ptr %m_cgc_enabled.i, align 4
  %m_func_decl_id.i = getelementptr inbounds i8, ptr %call.i1, i64 40
  store i32 -1, ptr %m_func_decl_id.i, align 8
  ret void

lpad:                                             ; preds = %if.end.i
  %3 = landingpad { ptr, i32 }
          cleanup
  tail call void @_ZN7tmp_appD2Ev(ptr noundef nonnull align 8 dereferenceable(16) %this) #19
  resume { ptr, i32 } %3
}